target datalayout = "e-m:e-p270:32:32-p271:32:32-p272:64:64-i64:64-i128:128-f80:128-n8:16:32:64-S128"
target triple = "x86_64-pc-linux-gnu"

%struct.Pla_Man_t_ = type { ptr, ptr, i32, i32, i32, i32, i32, %struct.Vec_Int_t_, %struct.Vec_Int_t_, %struct.Vec_Wrd_t_, %struct.Vec_Wrd_t_, %struct.Vec_Wec_t_, %struct.Vec_Wec_t_, %struct.Vec_Int_t_ }
%struct.Vec_Wrd_t_ = type { i32, i32, ptr }
%struct.Vec_Wec_t_ = type { i32, i32, ptr }
%struct.Vec_Int_t_ = type { i32, i32, ptr }
%struct.Vec_Str_t_ = type { i32, i32, ptr }

@.str = private unnamed_addr constant [3 x i8] c"wb\00", align 1
@.str.1 = private unnamed_addr constant [36 x i8] c"Cannot open file \22%s\22 for writing.\0A\00", align 1
@.str.2 = private unnamed_addr constant [46 x i8] c"# PLA file written via PLA package in ABC on \00", align 1
@.str.3 = private unnamed_addr constant [3 x i8] c"%s\00", align 1
@.str.4 = private unnamed_addr constant [3 x i8] c"\0A\0A\00", align 1
@.str.5 = private unnamed_addr constant [7 x i8] c".i %d\0A\00", align 1
@.str.6 = private unnamed_addr constant [7 x i8] c".o %d\0A\00", align 1
@.str.7 = private unnamed_addr constant [7 x i8] c".p %d\0A\00", align 1
@.str.8 = private unnamed_addr constant [6 x i8] c"%s 1\0A\00", align 1
@.str.9 = private unnamed_addr constant [5 x i8] c".e\0A\0A\00", align 1
@.str.10 = private unnamed_addr constant [20 x i8] c"Written file \22%s\22.\0A\00", align 1

; Function Attrs: inlinehint nounwind uwtable
define internal ptr @Vec_StrAlloc(i32 noundef %0) #4 {
  %2 = alloca i32, align 4
  %3 = alloca ptr, align 8
  store i32 %0, ptr %2, align 4, !tbaa !14
  call void @llvm.lifetime.start.p0(i64 8, ptr %3) #10
  %4 = call noalias ptr @malloc(i64 noundef 16) #12
  store ptr %4, ptr %3, align 8, !tbaa !12
  %5 = load i32, ptr %2, align 4, !tbaa !14
  %6 = icmp sgt i32 %5, 0
  br i1 %6, label %7, label %11

7:                                                ; preds = %1
  %8 = load i32, ptr %2, align 4, !tbaa !14
  %9 = icmp slt i32 %8, 16
  br i1 %9, label %10, label %11

10:                                               ; preds = %7
  store i32 16, ptr %2, align 4, !tbaa !14
  br label %11

11:                                               ; preds = %10, %7, %1
  %12 = load ptr, ptr %3, align 8, !tbaa !12
  %13 = getelementptr inbounds nuw %struct.Vec_Str_t_, ptr %12, i32 0, i32 1
  store i32 0, ptr %13, align 4, !tbaa !32
  %14 = load i32, ptr %2, align 4, !tbaa !14
  %15 = load ptr, ptr %3, align 8, !tbaa !12
  %16 = getelementptr inbounds nuw %struct.Vec_Str_t_, ptr %15, i32 0, i32 0
  store i32 %14, ptr %16, align 8, !tbaa !77
  %17 = load ptr, ptr %3, align 8, !tbaa !12
  %18 = getelementptr inbounds nuw %struct.Vec_Str_t_, ptr %17, i32 0, i32 0
  %19 = load i32, ptr %18, align 8, !tbaa !77
  %20 = icmp ne i32 %19, 0
  br i1 %20, label %21, label %28

21:                                               ; preds = %11
  %22 = load ptr, ptr %3, align 8, !tbaa !12
  %23 = getelementptr inbounds nuw %struct.Vec_Str_t_, ptr %22, i32 0, i32 0
  %24 = load i32, ptr %23, align 8, !tbaa !77
  %25 = sext i32 %24 to i64
  %26 = mul i64 1, %25
  %27 = call noalias ptr @malloc(i64 noundef %26) #12
  br label %29

28:                                               ; preds = %11
  br label %29

29:                                               ; preds = %28, %21
  %30 = phi ptr [ %27, %21 ], [ null, %28 ]
  %31 = load ptr, ptr %3, align 8, !tbaa !12
  %32 = getelementptr inbounds nuw %struct.Vec_Str_t_, ptr %31, i32 0, i32 2
  store ptr %30, ptr %32, align 8, !tbaa !34
  %33 = load ptr, ptr %3, align 8, !tbaa !12
  call void @llvm.lifetime.end.p0(i64 8, ptr %3) #10
  ret ptr %33
}

; Function Attrs: inlinehint nounwind uwtable
define internal void @Vec_StrFree(ptr noundef %0) #4 {
  %2 = alloca ptr, align 8
  store ptr %0, ptr %2, align 8, !tbaa !12
  %3 = load ptr, ptr %2, align 8, !tbaa !12
  %4 = getelementptr inbounds nuw %struct.Vec_Str_t_, ptr %3, i32 0, i32 2
  %5 = load ptr, ptr %4, align 8, !tbaa !34
  %6 = icmp ne ptr %5, null
  br i1 %6, label %7, label %13

7:                                                ; preds = %1
  %8 = load ptr, ptr %2, align 8, !tbaa !12
  %9 = getelementptr inbounds nuw %struct.Vec_Str_t_, ptr %8, i32 0, i32 2
  %10 = load ptr, ptr %9, align 8, !tbaa !34
  call void @free(ptr noundef %10) #10
  %11 = load ptr, ptr %2, align 8, !tbaa !12
  %12 = getelementptr inbounds nuw %struct.Vec_Str_t_, ptr %11, i32 0, i32 2
  store ptr null, ptr %12, align 8, !tbaa !34
  br label %14

13:                                               ; preds = %1
  br label %14

14:                                               ; preds = %13, %7
  %15 = load ptr, ptr %2, align 8, !tbaa !12
  %16 = icmp ne ptr %15, null
  br i1 %16, label %17, label %19

17:                                               ; preds = %14
  %18 = load ptr, ptr %2, align 8, !tbaa !12
  call void @free(ptr noundef %18) #10
  store ptr null, ptr %2, align 8, !tbaa !12
  br label %20

19:                                               ; preds = %14
  br label %20

20:                                               ; preds = %19, %17
  ret void
}

; Function Attrs: inlinehint nounwind uwtable
define internal ptr @Vec_StrArray(ptr noundef %0) #4 {
  %2 = alloca ptr, align 8
  store ptr %0, ptr %2, align 8, !tbaa !12
  %3 = load ptr, ptr %2, align 8, !tbaa !12
  %4 = getelementptr inbounds nuw %struct.Vec_Str_t_, ptr %3, i32 0, i32 2
  %5 = load ptr, ptr %4, align 8, !tbaa !34
  ret ptr %5
}

; Function Attrs: inlinehint nounwind uwtable
define internal i32 @Abc_LitIsCompl(i32 noundef %0) #4 {
  %2 = alloca i32, align 4
  store i32 %0, ptr %2, align 4, !tbaa !14
  %3 = load i32, ptr %2, align 4, !tbaa !14
  %4 = and i32 %3, 1
  ret i32 %4
}

; Function Attrs: inlinehint nounwind uwtable
define internal i32 @Abc_Lit2Var(i32 noundef %0) #4 {
  %2 = alloca i32, align 4
  store i32 %0, ptr %2, align 4, !tbaa !14
  %3 = load i32, ptr %2, align 4, !tbaa !14
  %4 = ashr i32 %3, 1
  ret i32 %4
}

; Function Attrs: inlinehint nounwind uwtable
define internal i32 @Vec_IntEntry(ptr noundef %0, i32 noundef %1) #4 {
  %3 = alloca ptr, align 8
  %4 = alloca i32, align 4
  store ptr %0, ptr %3, align 8, !tbaa !16
  store i32 %1, ptr %4, align 4, !tbaa !14
  %5 = load ptr, ptr %3, align 8, !tbaa !16
  %6 = getelementptr inbounds nuw %struct.Vec_Int_t_, ptr %5, i32 0, i32 2
  %7 = load ptr, ptr %6, align 8, !tbaa !38
  %8 = load i32, ptr %4, align 4, !tbaa !14
  %9 = sext i32 %8 to i64
  %10 = getelementptr inbounds i32, ptr %7, i64 %9
  %11 = load i32, ptr %10, align 4, !tbaa !14
  ret i32 %11
}

; Function Attrs: inlinehint nounwind uwtable
define internal void @Vec_StrWriteEntry(ptr noundef %0, i32 noundef %1, i8 noundef signext %2) #4 {
  %4 = alloca ptr, align 8
  %5 = alloca i32, align 4
  %6 = alloca i8, align 1
  store ptr %0, ptr %4, align 8, !tbaa !12
  store i32 %1, ptr %5, align 4, !tbaa !14
  store i8 %2, ptr %6, align 1, !tbaa !37
  %7 = load i8, ptr %6, align 1, !tbaa !37
  %8 = load ptr, ptr %4, align 8, !tbaa !12
  %9 = getelementptr inbounds nuw %struct.Vec_Str_t_, ptr %8, i32 0, i32 2
  %10 = load ptr, ptr %9, align 8, !tbaa !34
  %11 = load i32, ptr %5, align 4, !tbaa !14
  %12 = sext i32 %11 to i64
  %13 = getelementptr inbounds i8, ptr %10, i64 %12
  store i8 %7, ptr %13, align 1, !tbaa !37
  ret void
}

; Function Attrs: inlinehint nounwind uwtable
define internal i32 @Vec_IntSize(ptr noundef %0) #4 {
  %2 = alloca ptr, align 8
  store ptr %0, ptr %2, align 8, !tbaa !16
  %3 = load ptr, ptr %2, align 8, !tbaa !16
  %4 = getelementptr inbounds nuw %struct.Vec_Int_t_, ptr %3, i32 0, i32 1
  %5 = load i32, ptr %4, align 4, !tbaa !36
  ret i32 %5
}

; Function Attrs: inlinehint nounwind uwtable
define internal ptr @Vec_WecEntry(ptr noundef %0, i32 noundef %1) #4 {
  %3 = alloca ptr, align 8
  %4 = alloca i32, align 4
  store ptr %0, ptr %3, align 8, !tbaa !29
  store i32 %1, ptr %4, align 4, !tbaa !14
  %5 = load ptr, ptr %3, align 8, !tbaa !29
  %6 = getelementptr inbounds nuw %struct.Vec_Wec_t_, ptr %5, i32 0, i32 2
  %7 = load ptr, ptr %6, align 8, !tbaa !35
  %8 = load i32, ptr %4, align 4, !tbaa !14
  %9 = sext i32 %8 to i64
  %10 = getelementptr inbounds %struct.Vec_Int_t_, ptr %7, i64 %9
  ret ptr %10
}

; Function Attrs: inlinehint nounwind uwtable
define internal ptr @Vec_StrStart(i32 noundef %0) #4 {
  %2 = alloca i32, align 4
  %3 = alloca ptr, align 8
  store i32 %0, ptr %2, align 4, !tbaa !14
  call void @llvm.lifetime.start.p0(i64 8, ptr %3) #10
  %4 = load i32, ptr %2, align 4, !tbaa !14
  %5 = call ptr @Vec_StrAlloc(i32 noundef %4)
  store ptr %5, ptr %3, align 8, !tbaa !12
  %6 = load i32, ptr %2, align 4, !tbaa !14
  %7 = load ptr, ptr %3, align 8, !tbaa !12
  %8 = getelementptr inbounds nuw %struct.Vec_Str_t_, ptr %7, i32 0, i32 1
  store i32 %6, ptr %8, align 4, !tbaa !32
  %9 = load ptr, ptr %3, align 8, !tbaa !12
  %10 = getelementptr inbounds nuw %struct.Vec_Str_t_, ptr %9, i32 0, i32 2
  %11 = load ptr, ptr %10, align 8, !tbaa !34
  %12 = load i32, ptr %2, align 4, !tbaa !14
  %13 = sext i32 %12 to i64
  %14 = mul i64 1, %13
  call void @llvm.memset.p0.i64(ptr align 1 %11, i8 0, i64 %14, i1 false)
  %15 = load ptr, ptr %3, align 8, !tbaa !12
  call void @llvm.lifetime.end.p0(i64 8, ptr %3) #10
  ret ptr %15
}

; Function Attrs: inlinehint nounwind uwtable
define internal i32 @Vec_WecSize(ptr noundef %0) #4 {
  %2 = alloca ptr, align 8
  store ptr %0, ptr %2, align 8, !tbaa !29
  %3 = load ptr, ptr %2, align 8, !tbaa !29
  %4 = getelementptr inbounds nuw %struct.Vec_Wec_t_, ptr %3, i32 0, i32 1
  %5 = load i32, ptr %4, align 4, !tbaa !31
  ret i32 %5
}

; Function Attrs: inlinehint nounwind uwtable
define internal i32 @Pla_ManInNum(ptr noundef %0) #4 {
  %2 = alloca ptr, align 8
  store ptr %0, ptr %2, align 8, !tbaa !3
  %3 = load ptr, ptr %2, align 8, !tbaa !3
  %4 = getelementptr inbounds nuw %struct.Pla_Man_t_, ptr %3, i32 0, i32 3
  %5 = load i32, ptr %4, align 4, !tbaa !22
  ret i32 %5
}

; Function Attrs: nounwind uwtable
define void @Pla_ManDumpPla(ptr noundef %0, ptr noundef %1) #0 {
  %3 = alloca ptr, align 8
  %4 = alloca ptr, align 8
  %5 = alloca ptr, align 8
  %6 = alloca ptr, align 8
  %7 = alloca ptr, align 8
  %8 = alloca i32, align 4
  %9 = alloca i32, align 4
  %10 = alloca i32, align 4
  store ptr %0, ptr %3, align 8, !tbaa !3
  store ptr %1, ptr %4, align 8, !tbaa !8
  call void @llvm.lifetime.start.p0(i64 8, ptr %5) #10
  %11 = load ptr, ptr %4, align 8, !tbaa !8
  %12 = call noalias ptr @fopen(ptr noundef %11, ptr noundef @.str)
  store ptr %12, ptr %5, align 8, !tbaa !10
  %13 = load ptr, ptr %5, align 8, !tbaa !10
  %14 = icmp eq ptr %13, null
  br i1 %14, label %15, label %18

15:                                               ; preds = %2
  %16 = load ptr, ptr %4, align 8, !tbaa !8
  %17 = call i32 (ptr, ...) @printf(ptr noundef @.str.1, ptr noundef %16)
  br label %111

18:                                               ; preds = %2
  call void @llvm.lifetime.start.p0(i64 8, ptr %6) #10
  call void @llvm.lifetime.start.p0(i64 8, ptr %7) #10
  call void @llvm.lifetime.start.p0(i64 4, ptr %8) #10
  call void @llvm.lifetime.start.p0(i64 4, ptr %9) #10
  call void @llvm.lifetime.start.p0(i64 4, ptr %10) #10
  %19 = load ptr, ptr %5, align 8, !tbaa !10
  %20 = call i32 (ptr, ptr, ...) @fprintf(ptr noundef %19, ptr noundef @.str.2) #10
  %21 = load ptr, ptr %5, align 8, !tbaa !10
  %22 = call ptr (...) @Extra_TimeStamp()
  %23 = call i32 (ptr, ptr, ...) @fprintf(ptr noundef %21, ptr noundef @.str.3, ptr noundef %22) #10
  %24 = load ptr, ptr %5, align 8, !tbaa !10
  %25 = call i32 (ptr, ptr, ...) @fprintf(ptr noundef %24, ptr noundef @.str.4) #10
  %26 = load ptr, ptr %5, align 8, !tbaa !10
  %27 = load ptr, ptr %3, align 8, !tbaa !3
  %28 = call i32 @Pla_ManInNum(ptr noundef %27)
  %29 = call i32 (ptr, ptr, ...) @fprintf(ptr noundef %26, ptr noundef @.str.5, i32 noundef %28) #10
  %30 = load ptr, ptr %5, align 8, !tbaa !10
  %31 = call i32 (ptr, ptr, ...) @fprintf(ptr noundef %30, ptr noundef @.str.6, i32 noundef 1) #10
  %32 = load ptr, ptr %5, align 8, !tbaa !10
  %33 = load ptr, ptr %3, align 8, !tbaa !3
  %34 = getelementptr inbounds nuw %struct.Pla_Man_t_, ptr %33, i32 0, i32 11
  %35 = call i32 @Vec_WecSize(ptr noundef %34)
  %36 = call i32 (ptr, ptr, ...) @fprintf(ptr noundef %32, ptr noundef @.str.7, i32 noundef %35) #10
  %37 = load ptr, ptr %3, align 8, !tbaa !3
  %38 = call i32 @Pla_ManInNum(ptr noundef %37)
  %39 = add nsw i32 %38, 1
  %40 = call ptr @Vec_StrStart(i32 noundef %39)
  store ptr %40, ptr %6, align 8, !tbaa !12
  store i32 0, ptr %8, align 4, !tbaa !14
  br label %41

41:                                               ; preds = %100, %18
  %42 = load i32, ptr %8, align 4, !tbaa !14
  %43 = load ptr, ptr %3, align 8, !tbaa !3
  %44 = getelementptr inbounds nuw %struct.Pla_Man_t_, ptr %43, i32 0, i32 11
  %45 = call i32 @Vec_WecSize(ptr noundef %44)
  %46 = icmp slt i32 %42, %45
  br i1 %46, label %47, label %52

47:                                               ; preds = %41
  %48 = load ptr, ptr %3, align 8, !tbaa !3
  %49 = getelementptr inbounds nuw %struct.Pla_Man_t_, ptr %48, i32 0, i32 11
  %50 = load i32, ptr %8, align 4, !tbaa !14
  %51 = call ptr @Vec_WecEntry(ptr noundef %49, i32 noundef %50)
  store ptr %51, ptr %7, align 8, !tbaa !16
  br label %52

52:                                               ; preds = %47, %41
  %53 = phi i1 [ false, %41 ], [ true, %47 ]
  br i1 %53, label %54, label %103

54:                                               ; preds = %52
  %55 = load ptr, ptr %7, align 8, !tbaa !16
  %56 = call i32 @Vec_IntSize(ptr noundef %55)
  %57 = icmp ne i32 %56, 0
  br i1 %57, label %59, label %58

58:                                               ; preds = %54
  br label %100

59:                                               ; preds = %54
  store i32 0, ptr %9, align 4, !tbaa !14
  br label %60

60:                                               ; preds = %68, %59
  %61 = load i32, ptr %9, align 4, !tbaa !14
  %62 = load ptr, ptr %3, align 8, !tbaa !3
  %63 = call i32 @Pla_ManInNum(ptr noundef %62)
  %64 = icmp slt i32 %61, %63
  br i1 %64, label %65, label %71

65:                                               ; preds = %60
  %66 = load ptr, ptr %6, align 8, !tbaa !12
  %67 = load i32, ptr %9, align 4, !tbaa !14
  call void @Vec_StrWriteEntry(ptr noundef %66, i32 noundef %67, i8 noundef signext 45)
  br label %68

68:                                               ; preds = %65
  %69 = load i32, ptr %9, align 4, !tbaa !14
  %70 = add nsw i32 %69, 1
  store i32 %70, ptr %9, align 4, !tbaa !14
  br label %60, !llvm.loop !18

71:                                               ; preds = %60
  store i32 0, ptr %9, align 4, !tbaa !14
  br label %72

72:                                               ; preds = %92, %71
  %73 = load i32, ptr %9, align 4, !tbaa !14
  %74 = load ptr, ptr %7, align 8, !tbaa !16
  %75 = call i32 @Vec_IntSize(ptr noundef %74)
  %76 = icmp slt i32 %73, %75
  br i1 %76, label %77, label %81

77:                                               ; preds = %72
  %78 = load ptr, ptr %7, align 8, !tbaa !16
  %79 = load i32, ptr %9, align 4, !tbaa !14
  %80 = call i32 @Vec_IntEntry(ptr noundef %78, i32 noundef %79)
  store i32 %80, ptr %10, align 4, !tbaa !14
  br label %81

81:                                               ; preds = %77, %72
  %82 = phi i1 [ false, %72 ], [ true, %77 ]
  br i1 %82, label %83, label %95

83:                                               ; preds = %81
  %84 = load ptr, ptr %6, align 8, !tbaa !12
  %85 = load i32, ptr %10, align 4, !tbaa !14
  %86 = call i32 @Abc_Lit2Var(i32 noundef %85)
  %87 = load i32, ptr %10, align 4, !tbaa !14
  %88 = call i32 @Abc_LitIsCompl(i32 noundef %87)
  %89 = icmp ne i32 %88, 0
  %90 = select i1 %89, i32 48, i32 49
  %91 = trunc i32 %90 to i8
  call void @Vec_StrWriteEntry(ptr noundef %84, i32 noundef %86, i8 noundef signext %91)
  br label %92

92:                                               ; preds = %83
  %93 = load i32, ptr %9, align 4, !tbaa !14
  %94 = add nsw i32 %93, 1
  store i32 %94, ptr %9, align 4, !tbaa !14
  br label %72, !llvm.loop !20

95:                                               ; preds = %81
  %96 = load ptr, ptr %5, align 8, !tbaa !10
  %97 = load ptr, ptr %6, align 8, !tbaa !12
  %98 = call ptr @Vec_StrArray(ptr noundef %97)
  %99 = call i32 (ptr, ptr, ...) @fprintf(ptr noundef %96, ptr noundef @.str.8, ptr noundef %98) #10
  br label %100

100:                                              ; preds = %95, %58
  %101 = load i32, ptr %8, align 4, !tbaa !14
  %102 = add nsw i32 %101, 1
  store i32 %102, ptr %8, align 4, !tbaa !14
  br label %41, !llvm.loop !21

103:                                              ; preds = %52
  %104 = load ptr, ptr %6, align 8, !tbaa !12
  call void @Vec_StrFree(ptr noundef %104)
  %105 = load ptr, ptr %5, align 8, !tbaa !10
  %106 = call i32 (ptr, ptr, ...) @fprintf(ptr noundef %105, ptr noundef @.str.9) #10
  %107 = load ptr, ptr %5, align 8, !tbaa !10
  %108 = call i32 @fclose(ptr noundef %107)
  %109 = load ptr, ptr %4, align 8, !tbaa !8
  %110 = call i32 (ptr, ...) @printf(ptr noundef @.str.10, ptr noundef %109)
  call void @llvm.lifetime.end.p0(i64 4, ptr %10) #10
  call void @llvm.lifetime.end.p0(i64 4, ptr %9) #10
  call void @llvm.lifetime.end.p0(i64 4, ptr %8) #10
  call void @llvm.lifetime.end.p0(i64 8, ptr %7) #10
  call void @llvm.lifetime.end.p0(i64 8, ptr %6) #10
  br label %111

111:                                              ; preds = %103, %15
  call void @llvm.lifetime.end.p0(i64 8, ptr %5) #10
  ret void
}