; Function Attrs: nounwind uwtable
define void @Pla_ManDumpPla(ptr noundef readonly captures(none) %0, ptr noundef %1) local_unnamed_addr #0 {
  %3 = tail call noalias ptr @fopen(ptr noundef %1, ptr noundef nonnull @.str)
  %4 = icmp eq ptr %3, null
  br i1 %4, label %46, label %5

5:                                                ; preds = %2
  %6 = tail call i64 @fwrite(ptr nonnull @.str.2, i64 45, i64 1, ptr nonnull %3)
  %7 = tail call ptr (...) @Extra_TimeStamp() #16
  %fputs = tail call i32 @fputs(ptr %7, ptr nonnull %3)
  %8 = tail call i64 @fwrite(ptr nonnull @.str.4, i64 2, i64 1, ptr nonnull %3)
  %9 = getelementptr i8, ptr %0, i64 20
  %.val = load i32, ptr %9, align 4, !tbaa !3
  %10 = tail call i32 (ptr, ptr, ...) @fprintf(ptr noundef nonnull %3, ptr noundef nonnull @.str.5, i32 noundef %.val) #16
  %11 = tail call i32 (ptr, ptr, ...) @fprintf(ptr noundef nonnull %3, ptr noundef nonnull @.str.6, i32 noundef 1) #16
  %12 = getelementptr i8, ptr %0, i64 108
  %.val43 = load i32, ptr %12, align 4, !tbaa !16
  %13 = tail call i32 (ptr, ptr, ...) @fprintf(ptr noundef nonnull %3, ptr noundef nonnull @.str.7, i32 noundef %.val43) #16
  %.val41 = load i32, ptr %9, align 4, !tbaa !3
  %14 = add nsw i32 %.val41, 1
  %or.cond.i.i = icmp ult i32 %.val41, 15
  %spec.store.select.i.i = select i1 %or.cond.i.i, i32 16, i32 %14
  %.not.i.i = icmp eq i32 %spec.store.select.i.i, 0
  br i1 %.not.i.i, label %Vec_StrStart.exit, label %15

15:                                               ; preds = %5
  %16 = sext i32 %spec.store.select.i.i to i64
  %17 = tail call noalias ptr @malloc(i64 noundef %16) #17
  br label %Vec_StrStart.exit

Vec_StrStart.exit:                                ; preds = %5, %15
  %18 = phi ptr [ %17, %15 ], [ null, %5 ]
  %19 = sext i32 %14 to i64
  tail call void @llvm.memset.p0.i64(ptr align 1 %18, i8 0, i64 %19, i1 false)
  %.val4457 = load i32, ptr %12, align 4, !tbaa !16
  %20 = icmp sgt i32 %.val4457, 0
  br i1 %20, label %.lr.ph59, label %.critedge

.lr.ph59:                                         ; preds = %Vec_StrStart.exit
  %21 = getelementptr i8, ptr %0, i64 112
  br label %22

22:                                               ; preds = %.lr.ph59, %40
  %.val4466 = phi i32 [ %.val4457, %.lr.ph59 ], [ %.val44, %40 ]
  %indvars.iv62 = phi i64 [ 0, %.lr.ph59 ], [ %indvars.iv.next63, %40 ]
  %.val45 = load ptr, ptr %21, align 8, !tbaa !17
  %23 = getelementptr inbounds nuw %struct.Vec_Int_t_, ptr %.val45, i64 %indvars.iv62
  %24 = getelementptr i8, ptr %23, i64 4
  %.val46 = load i32, ptr %24, align 4, !tbaa !18
  %.not = icmp eq i32 %.val46, 0
  br i1 %.not, label %40, label %.preheader52

.preheader52:                                     ; preds = %22
  %.val42 = load i32, ptr %9, align 4, !tbaa !3
  %25 = icmp sgt i32 %.val42, 0
  br i1 %25, label %.lr.ph.preheader, label %.preheader

.lr.ph.preheader:                                 ; preds = %.preheader52
  %26 = zext nneg i32 %.val42 to i64
  tail call void @llvm.memset.p0.i64(ptr align 1 %18, i8 45, i64 %26, i1 false), !tbaa !19
  %.val4754.pre = load i32, ptr %24, align 4, !tbaa !18
  br label %.preheader

.preheader:                                       ; preds = %.lr.ph.preheader, %.preheader52
  %.val4754 = phi i32 [ %.val4754.pre, %.lr.ph.preheader ], [ %.val46, %.preheader52 ]
  %27 = icmp sgt i32 %.val4754, 0
  br i1 %27, label %.lr.ph56, label %.critedge2

.lr.ph56:                                         ; preds = %.preheader
  %28 = getelementptr i8, ptr %23, i64 8
  br label %29

29:                                               ; preds = %.lr.ph56, %29
  %indvars.iv = phi i64 [ 0, %.lr.ph56 ], [ %indvars.iv.next, %29 ]
  %.val50 = load ptr, ptr %28, align 8, !tbaa !20
  %30 = getelementptr inbounds nuw i32, ptr %.val50, i64 %indvars.iv
  %31 = load i32, ptr %30, align 4, !tbaa !21
  %32 = ashr i32 %31, 1
  %33 = and i32 %31, 1
  %.not40 = icmp eq i32 %33, 0
  %34 = select i1 %.not40, i8 49, i8 48
  %35 = sext i32 %32 to i64
  %36 = getelementptr inbounds i8, ptr %18, i64 %35
  store i8 %34, ptr %36, align 1, !tbaa !19
  %indvars.iv.next = add nuw nsw i64 %indvars.iv, 1
  %.val47 = load i32, ptr %24, align 4, !tbaa !18
  %37 = sext i32 %.val47 to i64
  %38 = icmp slt i64 %indvars.iv.next, %37
  br i1 %38, label %29, label %.critedge2, !llvm.loop !22

.critedge2:                                       ; preds = %29, %.preheader
  %39 = tail call i32 (ptr, ptr, ...) @fprintf(ptr noundef nonnull %3, ptr noundef nonnull @.str.8, ptr noundef %18) #16
  %.val44.pre = load i32, ptr %12, align 4, !tbaa !16
  br label %40

40:                                               ; preds = %22, %.critedge2
  %.val44 = phi i32 [ %.val4466, %22 ], [ %.val44.pre, %.critedge2 ]
  %indvars.iv.next63 = add nuw nsw i64 %indvars.iv62, 1
  %41 = sext i32 %.val44 to i64
  %42 = icmp slt i64 %indvars.iv.next63, %41
  br i1 %42, label %22, label %.critedge, !llvm.loop !24

.critedge:                                        ; preds = %40, %Vec_StrStart.exit
  %.not.i = icmp eq ptr %18, null
  br i1 %.not.i, label %Vec_StrFree.exit, label %43

43:                                               ; preds = %.critedge
  tail call void @free(ptr noundef nonnull %18) #16
  br label %Vec_StrFree.exit

Vec_StrFree.exit:                                 ; preds = %.critedge, %43
  %44 = tail call i64 @fwrite(ptr nonnull @.str.9, i64 4, i64 1, ptr nonnull %3)
  %45 = tail call i32 @fclose(ptr noundef nonnull %3)
  br label %46

46:                                               ; preds = %2, %Vec_StrFree.exit
  %.str.10.sink = phi ptr [ @.str.10, %Vec_StrFree.exit ], [ @.str.1, %2 ]
  %47 = tail call i32 (ptr, ...) @printf(ptr noundef nonnull dereferenceable(1) %.str.10.sink, ptr noundef %1)
  ret void
}